target datalayout = "e-m:e-p270:32:32-p271:32:32-p272:64:64-i64:64-i128:128-f80:128-n8:16:32:64-S128"
target triple = "x86_64-pc-linux-gnu"

; Function Attrs: nounwind uwtable
define internal void @unpremultiply8yuv(ptr noundef %0, ptr noundef %1, ptr noundef %2, i64 noundef %3, i64 noundef %4, i64 noundef %5, i32 noundef %6, i32 noundef %7, i32 noundef %8, i32 noundef %9, i32 noundef %10) #1 {
  %12 = alloca ptr, align 8
  %13 = alloca ptr, align 8
  %14 = alloca ptr, align 8
  %15 = alloca i64, align 8
  %16 = alloca i64, align 8
  %17 = alloca i64, align 8
  %18 = alloca i32, align 4
  %19 = alloca i32, align 4
  %20 = alloca i32, align 4
  %21 = alloca i32, align 4
  %22 = alloca i32, align 4
  %23 = alloca i32, align 4
  %24 = alloca i32, align 4
  store ptr %0, ptr %12, align 8, !tbaa !91
  store ptr %1, ptr %13, align 8, !tbaa !91
  store ptr %2, ptr %14, align 8, !tbaa !91
  store i64 %3, ptr %15, align 8, !tbaa !50
  store i64 %4, ptr %16, align 8, !tbaa !50
  store i64 %5, ptr %17, align 8, !tbaa !50
  store i32 %6, ptr %18, align 4, !tbaa !37
  store i32 %7, ptr %19, align 4, !tbaa !37
  store i32 %8, ptr %20, align 4, !tbaa !37
  store i32 %9, ptr %21, align 4, !tbaa !37
  store i32 %10, ptr %22, align 4, !tbaa !37
  call void @llvm.lifetime.start.p0(i64 4, ptr %23) #11
  call void @llvm.lifetime.start.p0(i64 4, ptr %24) #11
  store i32 0, ptr %24, align 4, !tbaa !37
  br label %25

25:                                               ; preds = %117, %11
  %26 = load i32, ptr %24, align 4, !tbaa !37
  %27 = load i32, ptr %19, align 4, !tbaa !37
  %28 = icmp slt i32 %26, %27
  br i1 %28, label %29, label %120

29:                                               ; preds = %25
  store i32 0, ptr %23, align 4, !tbaa !37
  br label %30

30:                                               ; preds = %104, %29
  %31 = load i32, ptr %23, align 4, !tbaa !37
  %32 = load i32, ptr %18, align 4, !tbaa !37
  %33 = icmp slt i32 %31, %32
  br i1 %33, label %34, label %107

34:                                               ; preds = %30
  %35 = load ptr, ptr %13, align 8, !tbaa !91
  %36 = load i32, ptr %23, align 4, !tbaa !37
  %37 = sext i32 %36 to i64
  %38 = getelementptr inbounds i8, ptr %35, i64 %37
  %39 = load i8, ptr %38, align 1, !tbaa !92
  %40 = zext i8 %39 to i32
  %41 = icmp sgt i32 %40, 0
  br i1 %41, label %42, label %93

42:                                               ; preds = %34
  %43 = load ptr, ptr %13, align 8, !tbaa !91
  %44 = load i32, ptr %23, align 4, !tbaa !37
  %45 = sext i32 %44 to i64
  %46 = getelementptr inbounds i8, ptr %43, i64 %45
  %47 = load i8, ptr %46, align 1, !tbaa !92
  %48 = zext i8 %47 to i32
  %49 = icmp slt i32 %48, 255
  br i1 %49, label %50, label %93

50:                                               ; preds = %42
  %51 = load ptr, ptr %12, align 8, !tbaa !91
  %52 = load i32, ptr %23, align 4, !tbaa !37
  %53 = sext i32 %52 to i64
  %54 = getelementptr inbounds i8, ptr %51, i64 %53
  %55 = load i8, ptr %54, align 1, !tbaa !92
  %56 = zext i8 %55 to i32
  %57 = sub nsw i32 %56, 128
  %58 = mul nsw i32 %57, 255
  %59 = load ptr, ptr %13, align 8, !tbaa !91
  %60 = load i32, ptr %23, align 4, !tbaa !37
  %61 = sext i32 %60 to i64
  %62 = getelementptr inbounds i8, ptr %59, i64 %61
  %63 = load i8, ptr %62, align 1, !tbaa !92
  %64 = zext i8 %63 to i32
  %65 = sdiv i32 %58, %64
  %66 = add nsw i32 %65, 128
  %67 = icmp sgt i32 %66, 255
  br i1 %67, label %68, label %69

68:                                               ; preds = %50
  br label %86

69:                                               ; preds = %50
  %70 = load ptr, ptr %12, align 8, !tbaa !91
  %71 = load i32, ptr %23, align 4, !tbaa !37
  %72 = sext i32 %71 to i64
  %73 = getelementptr inbounds i8, ptr %70, i64 %72
  %74 = load i8, ptr %73, align 1, !tbaa !92
  %75 = zext i8 %74 to i32
  %76 = sub nsw i32 %75, 128
  %77 = mul nsw i32 %76, 255
  %78 = load ptr, ptr %13, align 8, !tbaa !91
  %79 = load i32, ptr %23, align 4, !tbaa !37
  %80 = sext i32 %79 to i64
  %81 = getelementptr inbounds i8, ptr %78, i64 %80
  %82 = load i8, ptr %81, align 1, !tbaa !92
  %83 = zext i8 %82 to i32
  %84 = sdiv i32 %77, %83
  %85 = add nsw i32 %84, 128
  br label %86

86:                                               ; preds = %69, %68
  %87 = phi i32 [ 255, %68 ], [ %85, %69 ]
  %88 = trunc i32 %87 to i8
  %89 = load ptr, ptr %14, align 8, !tbaa !91
  %90 = load i32, ptr %23, align 4, !tbaa !37
  %91 = sext i32 %90 to i64
  %92 = getelementptr inbounds i8, ptr %89, i64 %91
  store i8 %88, ptr %92, align 1, !tbaa !92
  br label %103

93:                                               ; preds = %42, %34
  %94 = load ptr, ptr %12, align 8, !tbaa !91
  %95 = load i32, ptr %23, align 4, !tbaa !37
  %96 = sext i32 %95 to i64
  %97 = getelementptr inbounds i8, ptr %94, i64 %96
  %98 = load i8, ptr %97, align 1, !tbaa !92
  %99 = load ptr, ptr %14, align 8, !tbaa !91
  %100 = load i32, ptr %23, align 4, !tbaa !37
  %101 = sext i32 %100 to i64
  %102 = getelementptr inbounds i8, ptr %99, i64 %101
  store i8 %98, ptr %102, align 1, !tbaa !92
  br label %103

103:                                              ; preds = %93, %86
  br label %104

104:                                              ; preds = %103
  %105 = load i32, ptr %23, align 4, !tbaa !37
  %106 = add nsw i32 %105, 1
  store i32 %106, ptr %23, align 4, !tbaa !37
  br label %30, !llvm.loop !97

107:                                              ; preds = %30
  %108 = load i64, ptr %17, align 8, !tbaa !50
  %109 = load ptr, ptr %14, align 8, !tbaa !91
  %110 = getelementptr inbounds i8, ptr %109, i64 %108
  store ptr %110, ptr %14, align 8, !tbaa !91
  %111 = load i64, ptr %15, align 8, !tbaa !50
  %112 = load ptr, ptr %12, align 8, !tbaa !91
  %113 = getelementptr inbounds i8, ptr %112, i64 %111
  store ptr %113, ptr %12, align 8, !tbaa !91
  %114 = load i64, ptr %16, align 8, !tbaa !50
  %115 = load ptr, ptr %13, align 8, !tbaa !91
  %116 = getelementptr inbounds i8, ptr %115, i64 %114
  store ptr %116, ptr %13, align 8, !tbaa !91
  br label %117

117:                                              ; preds = %107
  %118 = load i32, ptr %24, align 4, !tbaa !37
  %119 = add nsw i32 %118, 1
  store i32 %119, ptr %24, align 4, !tbaa !37
  br label %25, !llvm.loop !98

120:                                              ; preds = %25
  call void @llvm.lifetime.end.p0(i64 4, ptr %24) #11
  call void @llvm.lifetime.end.p0(i64 4, ptr %23) #11
  ret void
}