; Function Attrs: nofree norecurse nosync nounwind memory(argmem: readwrite) uwtable
define internal void @unpremultiply8yuv(ptr noundef readonly captures(none) %0, ptr noundef readonly captures(none) %1, ptr noundef writeonly captures(none) %2, i64 noundef %3, i64 noundef %4, i64 noundef %5, i32 noundef %6, i32 noundef %7, i32 %8, i32 %9, i32 %10) #5 {
  %12 = icmp sgt i32 %7, 0
  %13 = icmp sgt i32 %6, 0
  %or.cond = and i1 %12, %13
  br i1 %or.cond, label %.preheader.us.preheader, label %._crit_edge41

.preheader.us.preheader:                          ; preds = %11
  %wide.trip.count = zext nneg i32 %6 to i64
  br label %.preheader.us

.preheader.us:                                    ; preds = %.preheader.us.preheader, %._crit_edge.us
  %.040.us = phi i32 [ %35, %._crit_edge.us ], [ 0, %.preheader.us.preheader ]
  %.03039.us = phi ptr [ %33, %._crit_edge.us ], [ %0, %.preheader.us.preheader ]
  %.03138.us = phi ptr [ %34, %._crit_edge.us ], [ %1, %.preheader.us.preheader ]
  %.03237.us = phi ptr [ %32, %._crit_edge.us ], [ %2, %.preheader.us.preheader ]
  br label %14

14:                                               ; preds = %.preheader.us, %30
  %indvars.iv = phi i64 [ 0, %.preheader.us ], [ %indvars.iv.next, %30 ]
  %15 = getelementptr inbounds nuw i8, ptr %.03138.us, i64 %indvars.iv
  %16 = load i8, ptr %15, align 1, !tbaa !78
  switch i8 %16, label %20 [
    i8 0, label %17
    i8 -1, label %17
  ]

17:                                               ; preds = %14, %14
  %18 = getelementptr inbounds nuw i8, ptr %.03039.us, i64 %indvars.iv
  %19 = load i8, ptr %18, align 1, !tbaa !78
  br label %30

20:                                               ; preds = %14
  %21 = getelementptr inbounds nuw i8, ptr %.03039.us, i64 %indvars.iv
  %22 = load i8, ptr %21, align 1, !tbaa !78
  %23 = zext i8 %22 to i16
  %24 = mul nuw i16 %23, 255
  %.lhs.trunc.us = add i16 %24, -32640
  %.rhs.trunc.us = zext i8 %16 to i16
  %25 = sdiv i16 %.lhs.trunc.us, %.rhs.trunc.us
  %26 = icmp sgt i16 %25, 127
  %27 = trunc i16 %25 to i8
  %28 = xor i8 %27, -128
  %29 = select i1 %26, i8 -1, i8 %28
  br label %30

30:                                               ; preds = %20, %17
  %.sink = phi i8 [ %29, %20 ], [ %19, %17 ]
  %31 = getelementptr inbounds nuw i8, ptr %.03237.us, i64 %indvars.iv
  store i8 %.sink, ptr %31, align 1, !tbaa !78
  %indvars.iv.next = add nuw nsw i64 %indvars.iv, 1
  %exitcond.not = icmp eq i64 %indvars.iv.next, %wide.trip.count
  br i1 %exitcond.not, label %._crit_edge.us, label %14, !llvm.loop !83

._crit_edge.us:                                   ; preds = %30
  %32 = getelementptr inbounds i8, ptr %.03237.us, i64 %5
  %33 = getelementptr inbounds i8, ptr %.03039.us, i64 %3
  %34 = getelementptr inbounds i8, ptr %.03138.us, i64 %4
  %35 = add nuw nsw i32 %.040.us, 1
  %exitcond44.not = icmp eq i32 %35, %7
  br i1 %exitcond44.not, label %._crit_edge41, label %.preheader.us, !llvm.loop !84

._crit_edge41:                                    ; preds = %._crit_edge.us, %11
  ret void
}